target datalayout = "e-m:e-p270:32:32-p271:32:32-p272:64:64-i64:64-i128:128-f80:128-n8:16:32:64-S128"
target triple = "x86_64-pc-linux-gnu"

%struct.AVCodecContext = type { ptr, i32, i32, ptr, i32, i32, ptr, ptr, ptr, i64, i32, i32, ptr, i32, %struct.AVRational, %struct.AVRational, %struct.AVRational, i32, i32, i32, i32, i32, %struct.AVRational, i32, i32, i32, i32, i32, i32, i32, i32, i32, i32, i32, ptr, ptr, i32, float, float, float, float, float, float, float, float, float, i32, i32, i32, i32, i32, i32, i32, i32, i32, i32, i32, i32, ptr, ptr, ptr, i32, i32, i32, i32, i32, i32, i32, i32, i32, i32, %struct.AVChannelLayout, i32, i32, i32, i32, i32, i32, i32, i32, ptr, i32, i32, i32, float, float, i32, i32, i32, i32, i32, ptr, i64, i64, float, float, i32, i32, ptr, ptr, i32, i32, i32, i32, i32, ptr, ptr, ptr, ptr, i32, i32, [8 x i64], i32, i32, i32, i32, i32, i32, i32, ptr, ptr, i32, i32, i32, i32, i32, i32, i32, i32, i32, i32, ptr, ptr, i32, i32, ptr, ptr, ptr, ptr, i32, i32, i64, i32, i32, i64, ptr, i64, ptr, i32, ptr, i32 }
%struct.AVRational = type { i32, i32 }
%struct.AVChannelLayout = type { i32, i32, %union.anon.0, ptr }
%union.anon.0 = type { i64 }
%struct.MPADecodeContext = type { i32, i32, i32, i32, i32, i32, i32, i32, i32, i32, [1048 x i8], i32, i32, i32, %struct.GetBitContext, %struct.GetBitContext, [2 x [1024 x float]], [2 x i32], [8 x i8], [2 x [36 x [32 x float]]], [2 x [576 x float]], [2 x [2 x %struct.GranuleDef]], i32, i32, i32, ptr, %struct.MPADSPContext, ptr, ptr, i32 }
%struct.GetBitContext = type { ptr, ptr, i32, i32, i32 }
%struct.GranuleDef = type { i8, i32, i32, i32, i32, i8, i8, [3 x i32], [3 x i32], i8, i8, [3 x i32], i32, i32, i32, [40 x i8], [12 x i8], [576 x float] }
%struct.MPADSPContext = type { ptr, ptr, ptr, ptr, ptr, ptr }
%struct.AVFloatDSPContext = type { ptr, ptr, ptr, ptr, ptr, ptr, ptr, ptr, ptr, ptr, ptr, ptr }

@decode_init.init_static_once = internal global i32 0, align 4

; Function Attrs: cold nounwind optsize uwtable
define internal i32 @decode_init(ptr noundef %0) #0 {
  %2 = alloca i32, align 4
  %3 = alloca ptr, align 8
  %4 = alloca ptr, align 8
  %5 = alloca ptr, align 8
  %6 = alloca i32, align 4
  store ptr %0, ptr %3, align 8, !tbaa !4
  call void @llvm.lifetime.start.p0(i64 8, ptr %4) #13
  %7 = load ptr, ptr %3, align 8, !tbaa !4
  %8 = getelementptr inbounds nuw %struct.AVCodecContext, ptr %7, i32 0, i32 6
  %9 = load ptr, ptr %8, align 8, !tbaa !9
  store ptr %9, ptr %4, align 8, !tbaa !29
  %10 = load ptr, ptr %3, align 8, !tbaa !4
  %11 = load ptr, ptr %4, align 8, !tbaa !29
  %12 = getelementptr inbounds nuw %struct.MPADecodeContext, ptr %11, i32 0, i32 25
  store ptr %10, ptr %12, align 16, !tbaa !31
  call void @llvm.lifetime.start.p0(i64 8, ptr %5) #13
  %13 = load ptr, ptr %3, align 8, !tbaa !4
  %14 = getelementptr inbounds nuw %struct.AVCodecContext, ptr %13, i32 0, i32 10
  %15 = load i32, ptr %14, align 8, !tbaa !36
  %16 = and i32 %15, 8388608
  %17 = call ptr @avpriv_float_dsp_alloc(i32 noundef %16)
  store ptr %17, ptr %5, align 8, !tbaa !37
  %18 = load ptr, ptr %5, align 8, !tbaa !37
  %19 = icmp ne ptr %18, null
  br i1 %19, label %21, label %20

20:                                               ; preds = %1
  store i32 -12, ptr %2, align 4
  store i32 1, ptr %6, align 4
  br label %28

21:                                               ; preds = %1
  %22 = load ptr, ptr %5, align 8, !tbaa !37
  %23 = getelementptr inbounds nuw %struct.AVFloatDSPContext, ptr %22, i32 0, i32 8
  %24 = load ptr, ptr %23, align 8, !tbaa !39
  %25 = load ptr, ptr %4, align 8, !tbaa !29
  %26 = getelementptr inbounds nuw %struct.MPADecodeContext, ptr %25, i32 0, i32 27
  store ptr %24, ptr %26, align 8, !tbaa !41
  %27 = load ptr, ptr %5, align 8, !tbaa !37
  call void @av_free(ptr noundef %27)
  store i32 0, ptr %6, align 4
  br label %28

28:                                               ; preds = %21, %20
  call void @llvm.lifetime.end.p0(i64 8, ptr %5) #13
  %29 = load i32, ptr %6, align 4
  switch i32 %29, label %63 [
    i32 0, label %30
  ]

30:                                               ; preds = %28
  %31 = load ptr, ptr %4, align 8, !tbaa !29
  %32 = getelementptr inbounds nuw %struct.MPADecodeContext, ptr %31, i32 0, i32 26
  call void @ff_mpadsp_init(ptr noundef %32)
  %33 = load ptr, ptr %3, align 8, !tbaa !4
  %34 = getelementptr inbounds nuw %struct.AVCodecContext, ptr %33, i32 0, i32 76
  %35 = load i32, ptr %34, align 8, !tbaa !42
  %36 = icmp eq i32 %35, 3
  br i1 %36, label %37, label %45

37:                                               ; preds = %30
  %38 = load ptr, ptr %3, align 8, !tbaa !4
  %39 = getelementptr inbounds nuw %struct.AVCodecContext, ptr %38, i32 0, i32 4
  %40 = load i32, ptr %39, align 8, !tbaa !43
  %41 = icmp ne i32 %40, 86030
  br i1 %41, label %42, label %45

42:                                               ; preds = %37
  %43 = load ptr, ptr %3, align 8, !tbaa !4
  %44 = getelementptr inbounds nuw %struct.AVCodecContext, ptr %43, i32 0, i32 70
  store i32 3, ptr %44, align 4, !tbaa !44
  br label %48

45:                                               ; preds = %37, %30
  %46 = load ptr, ptr %3, align 8, !tbaa !4
  %47 = getelementptr inbounds nuw %struct.AVCodecContext, ptr %46, i32 0, i32 70
  store i32 8, ptr %47, align 4, !tbaa !44
  br label %48

48:                                               ; preds = %45, %42
  %49 = load ptr, ptr %3, align 8, !tbaa !4
  %50 = getelementptr inbounds nuw %struct.AVCodecContext, ptr %49, i32 0, i32 104
  %51 = load i32, ptr %50, align 8, !tbaa !45
  %52 = load ptr, ptr %4, align 8, !tbaa !29
  %53 = getelementptr inbounds nuw %struct.MPADecodeContext, ptr %52, i32 0, i32 24
  store i32 %51, ptr %53, align 8, !tbaa !46
  %54 = load ptr, ptr %3, align 8, !tbaa !4
  %55 = getelementptr inbounds nuw %struct.AVCodecContext, ptr %54, i32 0, i32 4
  %56 = load i32, ptr %55, align 8, !tbaa !43
  %57 = icmp eq i32 %56, 86029
  br i1 %57, label %58, label %61

58:                                               ; preds = %48
  %59 = load ptr, ptr %4, align 8, !tbaa !29
  %60 = getelementptr inbounds nuw %struct.MPADecodeContext, ptr %59, i32 0, i32 22
  store i32 1, ptr %60, align 16, !tbaa !47
  br label %61

61:                                               ; preds = %58, %48
  %62 = call i32 @pthread_once(ptr noundef @decode_init.init_static_once, ptr noundef @decode_init_static)
  store i32 0, ptr %2, align 4
  store i32 1, ptr %6, align 4
  br label %63

63:                                               ; preds = %61, %28
  call void @llvm.lifetime.end.p0(i64 8, ptr %4) #13
  %64 = load i32, ptr %2, align 4
  ret i32 %64
}