; Function Attrs: cold nounwind optsize uwtable
define internal range(i32 -12, 1) i32 @decode_init(ptr noundef %0) #0 {
  %2 = getelementptr inbounds nuw i8, ptr %0, i64 32
  %3 = load ptr, ptr %2, align 8, !tbaa !4
  %4 = getelementptr inbounds nuw i8, ptr %3, i64 32944
  store ptr %0, ptr %4, align 16, !tbaa !27
  %5 = getelementptr inbounds nuw i8, ptr %0, i64 64
  %6 = load i32, ptr %5, align 8, !tbaa !33
  %7 = and i32 %6, 8388608
  %8 = tail call ptr @avpriv_float_dsp_alloc(i32 noundef %7) #14
  %.not.not = icmp eq ptr %8, null
  br i1 %.not.not, label %.critedge, label %._crit_edge

._crit_edge:                                      ; preds = %1
  %9 = getelementptr inbounds nuw i8, ptr %8, i64 64
  %10 = load ptr, ptr %9, align 8, !tbaa !34
  %11 = getelementptr inbounds nuw i8, ptr %3, i64 33000
  store ptr %10, ptr %11, align 8, !tbaa !36
  tail call void @av_free(ptr noundef nonnull %8) #14
  %12 = getelementptr inbounds nuw i8, ptr %3, i64 32952
  tail call void @ff_mpadsp_init(ptr noundef nonnull %12) #14
  %13 = getelementptr inbounds nuw i8, ptr %0, i64 392
  %14 = load i32, ptr %13, align 8, !tbaa !37
  %15 = icmp eq i32 %14, 3
  %16 = getelementptr inbounds nuw i8, ptr %0, i64 24
  %17 = load i32, ptr %16, align 8, !tbaa !38
  %.not = icmp eq i32 %17, 86030
  %spec.select = select i1 %.not, i32 8, i32 3
  %.sink = select i1 %15, i32 %spec.select, i32 8
  %18 = getelementptr inbounds nuw i8, ptr %0, i64 348
  store i32 %.sink, ptr %18, align 4, !tbaa !39
  %19 = getelementptr inbounds nuw i8, ptr %0, i64 528
  %20 = load i32, ptr %19, align 8, !tbaa !40
  %21 = getelementptr inbounds nuw i8, ptr %3, i64 32936
  store i32 %20, ptr %21, align 8, !tbaa !41
  %22 = icmp eq i32 %17, 86029
  br i1 %22, label %23, label %25

23:                                               ; preds = %._crit_edge
  %24 = getelementptr inbounds nuw i8, ptr %3, i64 32928
  store i32 1, ptr %24, align 16, !tbaa !42
  br label %25

25:                                               ; preds = %23, %._crit_edge
  %26 = tail call i32 @pthread_once(ptr noundef nonnull @decode_init.init_static_once, ptr noundef nonnull @decode_init_static) #14
  br label %.critedge

.critedge:                                        ; preds = %1, %25
  %.1 = phi i32 [ 0, %25 ], [ -12, %1 ]
  ret i32 %.1
}